target datalayout = "e-m:e-p270:32:32-p271:32:32-p272:64:64-i64:64-i128:128-f80:128-n8:16:32:64-S128"
target triple = "x86_64-pc-linux-gnu"

@main_statusbar = external global ptr, align 8

; Function Attrs: nounwind uwtable
define internal ptr @_editing_thr(ptr noundef %0) #0 {
  %2 = alloca ptr, align 8
  %3 = alloca i32, align 4
  store ptr %0, ptr %2, align 8
  call void @llvm.lifetime.start.p0(i64 4, ptr %3) #11
  store i32 0, ptr %3, align 4
  %4 = call i32 @sleep(i32 noundef 5)
  call void @gdk_threads_enter()
  %5 = load ptr, ptr %2, align 8
  %6 = ptrtoint ptr %5 to i64
  %7 = trunc i64 %6 to i32
  store i32 %7, ptr %3, align 4
  %8 = load ptr, ptr @main_statusbar, align 8
  %9 = call i64 @gtk_statusbar_get_type() #12
  %10 = call ptr @g_type_check_instance_cast(ptr noundef %8, i64 noundef %9)
  %11 = load i32, ptr %3, align 4
  call void @gtk_statusbar_remove(ptr noundef %10, i32 noundef 2, i32 noundef %11)
  call void @gdk_threads_leave()
  call void @llvm.lifetime.end.p0(i64 4, ptr %3) #11
  ret ptr null
}