; Function Attrs: nounwind uwtable
define internal noalias noundef ptr @_editing_thr(ptr noundef %0) #2 {
  %2 = tail call i32 @sleep(i32 noundef 5) #16
  tail call void @gdk_threads_enter() #16
  %3 = ptrtoint ptr %0 to i64
  %4 = trunc i64 %3 to i32
  %5 = load ptr, ptr @main_statusbar, align 8
  %6 = tail call i64 @gtk_statusbar_get_type() #17
  %7 = tail call ptr @g_type_check_instance_cast(ptr noundef %5, i64 noundef %6) #16
  tail call void @gtk_statusbar_remove(ptr noundef %7, i32 noundef 2, i32 noundef %4) #16
  tail call void @gdk_threads_leave() #16
  ret ptr null
}